; Function Attrs: nounwind uwtable
define internal void @dataDeviceHandleDataOffer(ptr readnone captures(none) %0, ptr readnone captures(none) %1, ptr noundef %2) #0 {
  %4 = load ptr, ptr getelementptr inbounds nuw (i8, ptr @_glfw, i64 134032), align 8, !tbaa !173
  %5 = load i32, ptr getelementptr inbounds nuw (i8, ptr @_glfw, i64 134040), align 8, !tbaa !174
  %6 = add i32 %5, 1
  %7 = zext i32 %6 to i64
  %8 = shl nuw nsw i64 %7, 4
  %9 = tail call ptr @_glfw_realloc(ptr noundef %4, i64 noundef %8) #20
  %.not = icmp eq ptr %9, null
  br i1 %.not, label %10, label %11

10:                                               ; preds = %3
  tail call void (i32, ptr, ...) @_glfwInputError(i32 noundef 65541, ptr noundef null) #20
  br label %18

11:                                               ; preds = %3
  store ptr %9, ptr getelementptr inbounds nuw (i8, ptr @_glfw, i64 134032), align 8, !tbaa !173
  %12 = load i32, ptr getelementptr inbounds nuw (i8, ptr @_glfw, i64 134040), align 8, !tbaa !174
  %13 = add i32 %12, 1
  store i32 %13, ptr getelementptr inbounds nuw (i8, ptr @_glfw, i64 134040), align 8, !tbaa !174
  %14 = zext i32 %12 to i64
  %15 = getelementptr inbounds nuw %struct._GLFWofferWayland, ptr %9, i64 %14
  store ptr %2, ptr %15, align 8, !tbaa !175
  %.sroa.2.0..sroa_idx = getelementptr inbounds nuw i8, ptr %15, i64 8
  store i32 0, ptr %.sroa.2.0..sroa_idx, align 8, !tbaa !147
  %.sroa.3.0..sroa_idx = getelementptr inbounds nuw i8, ptr %15, i64 12
  store i32 0, ptr %.sroa.3.0..sroa_idx, align 4, !tbaa !147
  %16 = load ptr, ptr getelementptr inbounds nuw (i8, ptr @_glfw, i64 137456), align 8, !tbaa !176
  %17 = tail call i32 %16(ptr noundef %2, ptr noundef nonnull @dataOfferListener, ptr noundef null) #20
  br label %18

18:                                               ; preds = %11, %10
  ret void
}